	.file	"fork.c"
	.text
	.globl	main
	.type	main, @function
main:
.LFB0:
	.cfi_startproc
	pushq	%rbp
	.cfi_def_cfa_offset 16
	.cfi_offset 6, -16
	movq	%rsp, %rbp
	.cfi_def_cfa_register 6
	subq	$16, %rsp
	call	fork@PLT
	movl	%eax, -4(%rbp)
	cmpl	$0, -4(%rbp)
	jne	.L2
	movl	$0, %eax
	call	childprocess
	movl	$500, %edi
	call	sleep@PLT
	jmp	.L3
.L2:
	movl	$0, %eax
	call	parentprocess
.L3:
	movl	$0, %eax
	leave
	.cfi_def_cfa 7, 8
	ret
	.cfi_endproc
.LFE0:
	.size	main, .-main
	.section	.rodata
.LC0:
	.string	"child process:"
.LC1:
	.string	"child process id is %d:\n"
	.align 8
.LC2:
	.string	"child parent process id is %d:\n"
	.text
	.globl	childprocess
	.type	childprocess, @function
childprocess:
.LFB1:
	.cfi_startproc
	pushq	%rbp
	.cfi_def_cfa_offset 16
	.cfi_offset 6, -16
	movq	%rsp, %rbp
	.cfi_def_cfa_register 6
	leaq	.LC0(%rip), %rdi
	call	puts@PLT
	call	getpid@PLT
	movl	%eax, %esi
	leaq	.LC1(%rip), %rdi
	movl	$0, %eax
	call	printf@PLT
	call	getppid@PLT
	movl	%eax, %esi
	leaq	.LC2(%rip), %rdi
	movl	$0, %eax
	call	printf@PLT
	nop
	popq	%rbp
	.cfi_def_cfa 7, 8
	ret
	.cfi_endproc
.LFE1:
	.size	childprocess, .-childprocess
	.section	.rodata
.LC3:
	.string	"parent process:"
.LC4:
	.string	"parent process id is :%d\n"
	.align 8
.LC5:
	.string	"parent parent id(SHELL ID) is :%d\n"
	.text
	.globl	parentprocess
	.type	parentprocess, @function
parentprocess:
.LFB2:
	.cfi_startproc
	pushq	%rbp
	.cfi_def_cfa_offset 16
	.cfi_offset 6, -16
	movq	%rsp, %rbp
	.cfi_def_cfa_register 6
	leaq	.LC3(%rip), %rdi
	call	puts@PLT
	call	getpid@PLT
	movl	%eax, %esi
	leaq	.LC4(%rip), %rdi
	movl	$0, %eax
	call	printf@PLT
	call	getppid@PLT
	movl	%eax, %esi
	leaq	.LC5(%rip), %rdi
	movl	$0, %eax
	call	printf@PLT
	nop
	popq	%rbp
	.cfi_def_cfa 7, 8
	ret
	.cfi_endproc
.LFE2:
	.size	parentprocess, .-parentprocess
	.ident	"GCC: (Ubuntu 7.5.0-3ubuntu1~18.04) 7.5.0"
	.section	.note.GNU-stack,"",@progbits
